; Function Attrs: mustprogress uwtable
define hidden void @_ZN12mpff_manager3setER4mpffij(ptr noundef nonnull align 8 dereferenceable(89) %0, ptr noundef nonnull align 4 captures(address) dereferenceable(8) %1, i32 noundef %2, i32 noundef %3) local_unnamed_addr #3 align 2 personality ptr @__gxx_personality_v0 {
  %5 = alloca %class._scoped_numeral, align 8
  %6 = alloca %class._scoped_numeral, align 8
  call void @llvm.lifetime.start.p0(i64 16, ptr nonnull %5) #25
  store ptr %0, ptr %5, align 8, !tbaa !46
  %7 = getelementptr inbounds nuw i8, ptr %5, i64 8
  store i32 0, ptr %7, align 8
  %8 = getelementptr inbounds nuw i8, ptr %5, i64 12
  store i32 0, ptr %8, align 4, !tbaa !35
  call void @llvm.lifetime.start.p0(i64 16, ptr nonnull %6) #25
  store ptr %0, ptr %6, align 8, !tbaa !46
  %9 = getelementptr inbounds nuw i8, ptr %6, i64 8
  store i32 0, ptr %9, align 8
  %10 = getelementptr inbounds nuw i8, ptr %6, i64 12
  store i32 0, ptr %10, align 4, !tbaa !35
  invoke void @_ZN12mpff_manager3setER4mpffi(ptr noundef nonnull align 8 dereferenceable(89) %0, ptr noundef nonnull align 4 dereferenceable(8) %7, i32 noundef %2)
          to label %11 unwind label %86

11:                                               ; preds = %4
  invoke void @_ZN12mpff_manager3setER4mpffj(ptr noundef nonnull align 8 dereferenceable(89) %0, ptr noundef nonnull align 4 dereferenceable(8) %9, i32 noundef %3)
          to label %12 unwind label %86

12:                                               ; preds = %11
  invoke void @_ZN12mpff_manager3divERK4mpffS2_RS0_(ptr noundef nonnull align 8 dereferenceable(89) %0, ptr noundef nonnull align 4 dereferenceable(8) %7, ptr noundef nonnull align 4 dereferenceable(8) %9, ptr noundef nonnull align 4 dereferenceable(8) %1)
          to label %13 unwind label %86

13:                                               ; preds = %12
  %14 = load ptr, ptr %6, align 8, !tbaa !48
  %15 = load i32, ptr %9, align 8
  %.not.i.i = icmp ult i32 %15, 2
  br i1 %.not.i.i, label %_ZN15_scoped_numeralI12mpff_managerED2Ev.exit, label %16

16:                                               ; preds = %13
  %17 = lshr i32 %15, 1
  %18 = invoke noundef zeroext i1 @_ZN6memory16is_out_of_memoryEv()
          to label %.noexc.i unwind label %46

.noexc.i:                                         ; preds = %16
  br i1 %18, label %_ZN6id_gen7recycleEj.exit.i.i, label %19

19:                                               ; preds = %.noexc.i
  %20 = getelementptr inbounds nuw i8, ptr %14, i64 32
  %21 = load ptr, ptr %20, align 8, !tbaa !3
  %22 = icmp eq ptr %21, null
  br i1 %22, label %29, label %23

23:                                               ; preds = %19
  %24 = getelementptr inbounds i8, ptr %21, i64 -4
  %25 = load i32, ptr %24, align 4, !tbaa !21
  %26 = getelementptr inbounds i8, ptr %21, i64 -8
  %27 = load i32, ptr %26, align 4, !tbaa !21
  %28 = icmp eq i32 %25, %27
  br i1 %28, label %29, label %_ZN6vectorIjLb0EjE9push_backERKj.exit.i.i.i

29:                                               ; preds = %23, %19
  invoke void @_ZN6vectorIjLb0EjE13expand_vectorEv(ptr noundef nonnull align 8 dereferenceable(8) %20)
          to label %.noexc1.i unwind label %46

.noexc1.i:                                        ; preds = %29
  %.pre.i.i.i.i = load ptr, ptr %20, align 8, !tbaa !3
  %.phi.trans.insert.i.i.i.i = getelementptr inbounds i8, ptr %.pre.i.i.i.i, i64 -4
  %.pre2.i.i.i.i = load i32, ptr %.phi.trans.insert.i.i.i.i, align 4, !tbaa !21
  br label %_ZN6vectorIjLb0EjE9push_backERKj.exit.i.i.i

_ZN6vectorIjLb0EjE9push_backERKj.exit.i.i.i:      ; preds = %.noexc1.i, %23
  %30 = phi i32 [ %.pre2.i.i.i.i, %.noexc1.i ], [ %25, %23 ]
  %31 = phi ptr [ %.pre.i.i.i.i, %.noexc1.i ], [ %21, %23 ]
  %32 = getelementptr inbounds i8, ptr %31, i64 -4
  %33 = zext i32 %30 to i64
  %34 = getelementptr inbounds nuw i32, ptr %31, i64 %33
  store i32 %17, ptr %34, align 4, !tbaa !21
  %35 = add i32 %30, 1
  store i32 %35, ptr %32, align 4, !tbaa !21
  br label %_ZN6id_gen7recycleEj.exit.i.i

_ZN6id_gen7recycleEj.exit.i.i:                    ; preds = %_ZN6vectorIjLb0EjE9push_backERKj.exit.i.i.i, %.noexc.i
  %36 = getelementptr inbounds nuw i8, ptr %14, i64 8
  %37 = load ptr, ptr %36, align 8, !tbaa !3
  %38 = load i32, ptr %14, align 8, !tbaa !13
  %39 = mul i32 %17, %38
  %40 = zext i32 %39 to i64
  %41 = getelementptr inbounds nuw i32, ptr %37, i64 %40
  %.not10.i.i = icmp eq i32 %38, 0
  br i1 %.not10.i.i, label %_ZN15_scoped_numeralI12mpff_managerED2Ev.exit, label %.lr.ph.i.i

.lr.ph.i.i:                                       ; preds = %_ZN6id_gen7recycleEj.exit.i.i, %.lr.ph.i.i
  %indvars.iv.i.i = phi i64 [ %indvars.iv.next.i.i, %.lr.ph.i.i ], [ 0, %_ZN6id_gen7recycleEj.exit.i.i ]
  %42 = getelementptr inbounds nuw i32, ptr %41, i64 %indvars.iv.i.i
  store i32 0, ptr %42, align 4, !tbaa !21
  %indvars.iv.next.i.i = add nuw nsw i64 %indvars.iv.i.i, 1
  %43 = load i32, ptr %14, align 8, !tbaa !13
  %44 = zext i32 %43 to i64
  %45 = icmp samesign ult i64 %indvars.iv.next.i.i, %44
  br i1 %45, label %.lr.ph.i.i, label %_ZN15_scoped_numeralI12mpff_managerED2Ev.exit, !llvm.loop !37

46:                                               ; preds = %29, %16
  %47 = landingpad { ptr, i32 }
          catch ptr null
  %48 = extractvalue { ptr, i32 } %47, 0
  call void @__clang_call_terminate(ptr %48) #28
  unreachable

_ZN15_scoped_numeralI12mpff_managerED2Ev.exit:    ; preds = %.lr.ph.i.i, %13, %_ZN6id_gen7recycleEj.exit.i.i
  call void @llvm.lifetime.end.p0(i64 16, ptr nonnull %6) #25
  %49 = load ptr, ptr %5, align 8, !tbaa !48
  %50 = load i32, ptr %7, align 8
  %.not.i.i7 = icmp ult i32 %50, 2
  br i1 %.not.i.i7, label %_ZN15_scoped_numeralI12mpff_managerED2Ev.exit19, label %51

51:                                               ; preds = %_ZN15_scoped_numeralI12mpff_managerED2Ev.exit
  %52 = lshr i32 %50, 1
  %53 = invoke noundef zeroext i1 @_ZN6memory16is_out_of_memoryEv()
          to label %.noexc.i8 unwind label %83

.noexc.i8:                                        ; preds = %51
  br i1 %53, label %_ZN6id_gen7recycleEj.exit.i.i10, label %54

54:                                               ; preds = %.noexc.i8
  %55 = getelementptr inbounds nuw i8, ptr %49, i64 32
  %56 = load ptr, ptr %55, align 8, !tbaa !3
  %57 = icmp eq ptr %56, null
  br i1 %57, label %64, label %58

58:                                               ; preds = %54
  %59 = getelementptr inbounds i8, ptr %56, i64 -4
  %60 = load i32, ptr %59, align 4, !tbaa !21
  %61 = getelementptr inbounds i8, ptr %56, i64 -8
  %62 = load i32, ptr %61, align 4, !tbaa !21
  %63 = icmp eq i32 %60, %62
  br i1 %63, label %64, label %_ZN6vectorIjLb0EjE9push_backERKj.exit.i.i.i9

64:                                               ; preds = %58, %54
  invoke void @_ZN6vectorIjLb0EjE13expand_vectorEv(ptr noundef nonnull align 8 dereferenceable(8) %55)
          to label %.noexc1.i15 unwind label %83

.noexc1.i15:                                      ; preds = %64
  %.pre.i.i.i.i16 = load ptr, ptr %55, align 8, !tbaa !3
  %.phi.trans.insert.i.i.i.i17 = getelementptr inbounds i8, ptr %.pre.i.i.i.i16, i64 -4
  %.pre2.i.i.i.i18 = load i32, ptr %.phi.trans.insert.i.i.i.i17, align 4, !tbaa !21
  br label %_ZN6vectorIjLb0EjE9push_backERKj.exit.i.i.i9

_ZN6vectorIjLb0EjE9push_backERKj.exit.i.i.i9:     ; preds = %.noexc1.i15, %58
  %65 = phi i32 [ %.pre2.i.i.i.i18, %.noexc1.i15 ], [ %60, %58 ]
  %66 = phi ptr [ %.pre.i.i.i.i16, %.noexc1.i15 ], [ %56, %58 ]
  %67 = getelementptr inbounds i8, ptr %66, i64 -4
  %68 = zext i32 %65 to i64
  %69 = getelementptr inbounds nuw i32, ptr %66, i64 %68
  store i32 %52, ptr %69, align 4, !tbaa !21
  %70 = add i32 %65, 1
  store i32 %70, ptr %67, align 4, !tbaa !21
  br label %_ZN6id_gen7recycleEj.exit.i.i10

_ZN6id_gen7recycleEj.exit.i.i10:                  ; preds = %_ZN6vectorIjLb0EjE9push_backERKj.exit.i.i.i9, %.noexc.i8
  %71 = getelementptr inbounds nuw i8, ptr %49, i64 8
  %72 = load ptr, ptr %71, align 8, !tbaa !3
  %73 = load i32, ptr %7, align 8
  %74 = lshr i32 %73, 1
  %75 = load i32, ptr %49, align 8, !tbaa !13
  %76 = mul i32 %74, %75
  %77 = zext i32 %76 to i64
  %78 = getelementptr inbounds nuw i32, ptr %72, i64 %77
  %.not10.i.i11 = icmp eq i32 %75, 0
  br i1 %.not10.i.i11, label %_ZN15_scoped_numeralI12mpff_managerED2Ev.exit19, label %.lr.ph.i.i12

.lr.ph.i.i12:                                     ; preds = %_ZN6id_gen7recycleEj.exit.i.i10, %.lr.ph.i.i12
  %indvars.iv.i.i13 = phi i64 [ %indvars.iv.next.i.i14, %.lr.ph.i.i12 ], [ 0, %_ZN6id_gen7recycleEj.exit.i.i10 ]
  %79 = getelementptr inbounds nuw i32, ptr %78, i64 %indvars.iv.i.i13
  store i32 0, ptr %79, align 4, !tbaa !21
  %indvars.iv.next.i.i14 = add nuw nsw i64 %indvars.iv.i.i13, 1
  %80 = load i32, ptr %49, align 8, !tbaa !13
  %81 = zext i32 %80 to i64
  %82 = icmp samesign ult i64 %indvars.iv.next.i.i14, %81
  br i1 %82, label %.lr.ph.i.i12, label %_ZN15_scoped_numeralI12mpff_managerED2Ev.exit19, !llvm.loop !37

83:                                               ; preds = %64, %51
  %84 = landingpad { ptr, i32 }
          catch ptr null
  %85 = extractvalue { ptr, i32 } %84, 0
  call void @__clang_call_terminate(ptr %85) #28
  unreachable

_ZN15_scoped_numeralI12mpff_managerED2Ev.exit19:  ; preds = %.lr.ph.i.i12, %_ZN15_scoped_numeralI12mpff_managerED2Ev.exit, %_ZN6id_gen7recycleEj.exit.i.i10
  call void @llvm.lifetime.end.p0(i64 16, ptr nonnull %5) #25
  ret void

86:                                               ; preds = %12, %11, %4
  %87 = landingpad { ptr, i32 }
          cleanup
  call void @_ZN15_scoped_numeralI12mpff_managerED2Ev(ptr noundef nonnull align 8 dereferenceable(16) %6) #25
  call void @llvm.lifetime.end.p0(i64 16, ptr nonnull %6) #25
  call void @_ZN15_scoped_numeralI12mpff_managerED2Ev(ptr noundef nonnull align 8 dereferenceable(16) %5) #25
  call void @llvm.lifetime.end.p0(i64 16, ptr nonnull %5) #25
  resume { ptr, i32 } %87
}